; Function Attrs: mustprogress uwtable
define internal void @_ZNK2cv4impl12_GLOBAL__N_120CvtColorLoop_InvokerINS_9Lab2RGB_bEEclERKNS_5RangeE(ptr noundef nonnull readonly align 8 captures(none) dereferenceable(56) %0, ptr noundef nonnull readonly align 4 captures(none) dereferenceable(8) %1) unnamed_addr #5 align 2 personality ptr @__gxx_personality_v0 {
  %3 = alloca %"class.cv::utils::trace::details::Region", align 8
  %4 = alloca %"class.cv::utils::trace::details::Region", align 8
  call void @llvm.lifetime.start.p0(i64 16, ptr nonnull %4) #22
  call void @_ZN2cv5utils5trace7details6RegionC1ERKNS3_21LocationStaticStorageE(ptr noundef nonnull align 8 dereferenceable(12) %4, ptr noundef nonnull align 8 dereferenceable(32) @_ZZNK2cv4impl12_GLOBAL__N_120CvtColorLoop_InvokerINS_9Lab2RGB_bEEclERKNS_5RangeEE25__cv_trace_location_fn146)
  %5 = load i32, ptr %1, align 4, !tbaa !9
  %6 = getelementptr inbounds nuw i8, ptr %0, i64 16
  %7 = getelementptr inbounds nuw i8, ptr %0, i64 32
  %8 = getelementptr inbounds nuw i8, ptr %1, i64 4
  %9 = load i32, ptr %8, align 4, !tbaa !11
  %10 = icmp slt i32 %5, %9
  br i1 %10, label %.lr.ph, label %._crit_edge

.lr.ph:                                           ; preds = %2
  %11 = getelementptr inbounds nuw i8, ptr %0, i64 24
  %12 = load ptr, ptr %11, align 8, !tbaa !176
  %13 = load i64, ptr %7, align 8, !tbaa !177
  %14 = sext i32 %5 to i64
  %15 = mul i64 %13, %14
  %16 = getelementptr inbounds nuw i8, ptr %12, i64 %15
  %17 = getelementptr inbounds nuw i8, ptr %0, i64 8
  %18 = load ptr, ptr %17, align 8, !tbaa !172
  %19 = load i64, ptr %6, align 8, !tbaa !175
  %20 = mul i64 %19, %14
  %21 = getelementptr inbounds nuw i8, ptr %18, i64 %20
  %22 = getelementptr inbounds nuw i8, ptr %0, i64 48
  %23 = getelementptr inbounds nuw i8, ptr %0, i64 40
  %24 = getelementptr inbounds nuw i8, ptr %3, i64 8
  br label %31

._crit_edge:                                      ; preds = %43, %2
  %25 = getelementptr inbounds nuw i8, ptr %4, i64 8
  %26 = load i32, ptr %25, align 8, !tbaa !52
  %.not.i = icmp eq i32 %26, 0
  br i1 %.not.i, label %_ZN2cv5utils5trace7details6RegionD2Ev.exit, label %27

27:                                               ; preds = %._crit_edge
  invoke void @_ZN2cv5utils5trace7details6Region7destroyEv(ptr noundef nonnull align 8 dereferenceable(12) %4)
          to label %_ZN2cv5utils5trace7details6RegionD2Ev.exit unwind label %28

28:                                               ; preds = %27
  %29 = landingpad { ptr, i32 }
          catch ptr null
  %30 = extractvalue { ptr, i32 } %29, 0
  call void @__clang_call_terminate(ptr %30) #23
  unreachable

_ZN2cv5utils5trace7details6RegionD2Ev.exit:       ; preds = %._crit_edge, %27
  call void @llvm.lifetime.end.p0(i64 16, ptr nonnull %4) #22
  ret void

31:                                               ; preds = %.lr.ph, %43
  %.016 = phi ptr [ %21, %.lr.ph ], [ %46, %43 ]
  %.01215 = phi ptr [ %16, %.lr.ph ], [ %48, %43 ]
  %.01314 = phi i32 [ %5, %.lr.ph ], [ %44, %43 ]
  %32 = load ptr, ptr %22, align 8, !tbaa !540
  %33 = load i32, ptr %23, align 8, !tbaa !178
  call void @llvm.lifetime.start.p0(i64 16, ptr nonnull %3) #22
  invoke void @_ZN2cv5utils5trace7details6RegionC1ERKNS3_21LocationStaticStorageE(ptr noundef nonnull align 8 dereferenceable(12) %3, ptr noundef nonnull align 8 dereferenceable(32) @_ZZNK2cv9Lab2RGB_bclEPKhPhiE26__cv_trace_location_fn2724)
          to label %.noexc unwind label %51

.noexc:                                           ; preds = %31
  %34 = getelementptr inbounds nuw i8, ptr %32, i64 56
  invoke void @_ZNK2cv14Lab2RGBintegerclEPKhPhi(ptr noundef nonnull align 4 dereferenceable(41) %34, ptr noundef %.016, ptr noundef %.01215, i32 noundef %33)
          to label %35 unwind label %41

35:                                               ; preds = %.noexc
  %36 = load i32, ptr %24, align 8, !tbaa !52
  %.not.i.i = icmp eq i32 %36, 0
  br i1 %.not.i.i, label %43, label %37

37:                                               ; preds = %35
  invoke void @_ZN2cv5utils5trace7details6Region7destroyEv(ptr noundef nonnull align 8 dereferenceable(12) %3)
          to label %43 unwind label %38

38:                                               ; preds = %37
  %39 = landingpad { ptr, i32 }
          catch ptr null
  %40 = extractvalue { ptr, i32 } %39, 0
  call void @__clang_call_terminate(ptr %40) #23
  unreachable

41:                                               ; preds = %.noexc
  %42 = landingpad { ptr, i32 }
          cleanup
  call void @_ZN2cv5utils5trace7details6RegionD2Ev(ptr noundef nonnull align 8 dereferenceable(12) %3) #22
  call void @llvm.lifetime.end.p0(i64 16, ptr nonnull %3) #22
  br label %.body

43:                                               ; preds = %37, %35
  call void @llvm.lifetime.end.p0(i64 16, ptr nonnull %3) #22
  %44 = add nsw i32 %.01314, 1
  %45 = load i64, ptr %6, align 8, !tbaa !175
  %46 = getelementptr inbounds nuw i8, ptr %.016, i64 %45
  %47 = load i64, ptr %7, align 8, !tbaa !177
  %48 = getelementptr inbounds nuw i8, ptr %.01215, i64 %47
  %49 = load i32, ptr %8, align 4, !tbaa !11
  %50 = icmp slt i32 %44, %49
  br i1 %50, label %31, label %._crit_edge, !llvm.loop !541

51:                                               ; preds = %31
  %52 = landingpad { ptr, i32 }
          cleanup
  br label %.body

.body:                                            ; preds = %41, %51
  %eh.lpad-body = phi { ptr, i32 } [ %52, %51 ], [ %42, %41 ]
  call void @_ZN2cv5utils5trace7details6RegionD2Ev(ptr noundef nonnull align 8 dereferenceable(12) %4) #22
  call void @llvm.lifetime.end.p0(i64 16, ptr nonnull %4) #22
  resume { ptr, i32 } %eh.lpad-body
}